; Function Attrs: mustprogress uwtable
define internal fastcc void @_ZN12_GLOBAL__N_124cmakemainMessageCallbackERKNSt7__cxx1112basic_stringIcSt11char_traitsIcESaIcEEERK17cmMessageMetadataP5cmake(ptr noundef nonnull align 8 dereferenceable(32) %0, i32 %.8.val, ptr noundef %1) unnamed_addr #8 personality ptr @__gxx_personality_v0 {
  %3 = alloca %"class.std::__cxx11::basic_string", align 8
  %4 = load ptr, ptr @stderr, align 8
  %5 = tail call noundef ptr @_ZNKSt7__cxx1112basic_stringIcSt11char_traitsIcESaIcEE5c_strEv(ptr noundef nonnull align 8 dereferenceable(32) %0) #27
  tail call void (i32, ptr, ptr, ...) @cmsysTerminal_cfprintf(i32 noundef %.8.val, ptr noundef %4, ptr noundef nonnull @.str.117, ptr noundef %5)
  %6 = load ptr, ptr @stderr, align 8
  %7 = tail call i32 @fflush(ptr noundef %6)
  call fastcc void @_ZN12_GLOBAL__N_117cmakemainGetStackB5cxx11EP5cmake(ptr dead_on_unwind noalias writable align 8 %3, ptr noundef %1)
  %8 = invoke noundef nonnull align 8 dereferenceable(8) ptr @_ZStlsIcSt11char_traitsIcESaIcEERSt13basic_ostreamIT_T0_ES7_RKNSt7__cxx1112basic_stringIS4_S5_T1_EE(ptr noundef nonnull align 8 dereferenceable(8) @_ZSt4cerr, ptr noundef nonnull align 8 dereferenceable(32) %3)
          to label %9 unwind label %14

9:                                                ; preds = %2
  %10 = invoke noundef nonnull align 8 dereferenceable(8) ptr @_ZStlsISt11char_traitsIcEERSt13basic_ostreamIcT_ES5_c(ptr noundef nonnull align 8 dereferenceable(8) %8, i8 noundef signext 10)
          to label %11 unwind label %14

11:                                               ; preds = %9
  %12 = invoke noundef nonnull align 8 dereferenceable(8) ptr @_ZNSolsEPFRSoS_E(ptr noundef nonnull align 8 dereferenceable(8) %10, ptr noundef nonnull @_ZSt5flushIcSt11char_traitsIcEERSt13basic_ostreamIT_T0_ES6_)
          to label %13 unwind label %14

13:                                               ; preds = %11
  call void @_ZNSt7__cxx1112basic_stringIcSt11char_traitsIcESaIcEED1Ev(ptr noundef nonnull align 8 dereferenceable(32) %3) #27
  ret void

14:                                               ; preds = %11, %9, %2
  %15 = landingpad { ptr, i32 }
          cleanup
  call void @_ZNSt7__cxx1112basic_stringIcSt11char_traitsIcESaIcEED1Ev(ptr noundef nonnull align 8 dereferenceable(32) %3) #27
  resume { ptr, i32 } %15
}